target datalayout = "e-m:e-p270:32:32-p271:32:32-p272:64:64-i64:64-i128:128-f80:128-n8:16:32:64-S128"
target triple = "x86_64-pc-linux-gnu"

; Function Attrs: nounwind uwtable
define i32 @ARKStepGetNumRhsEvals(ptr noundef %0, ptr noundef %1, ptr noundef %2) #0 {
  %4 = alloca i32, align 4
  %5 = alloca ptr, align 8
  %6 = alloca ptr, align 8
  %7 = alloca ptr, align 8
  %8 = alloca i32, align 4
  %9 = alloca i32, align 4
  store ptr %0, ptr %5, align 8, !tbaa !3
  store ptr %1, ptr %6, align 8, !tbaa !52
  store ptr %2, ptr %7, align 8, !tbaa !52
  call void @llvm.lifetime.start.p0(i64 4, ptr %8) #4
  store i32 0, ptr %8, align 4, !tbaa !7
  %10 = load ptr, ptr %5, align 8, !tbaa !3
  %11 = load ptr, ptr %6, align 8, !tbaa !52
  %12 = call i32 @ARKodeGetNumRhsEvals(ptr noundef %10, i32 noundef 0, ptr noundef %11)
  store i32 %12, ptr %8, align 4, !tbaa !7
  %13 = load i32, ptr %8, align 4, !tbaa !7
  %14 = icmp ne i32 %13, 0
  br i1 %14, label %15, label %17

15:                                               ; preds = %3
  %16 = load i32, ptr %8, align 4, !tbaa !7
  store i32 %16, ptr %4, align 4
  store i32 1, ptr %9, align 4
  br label %26

17:                                               ; preds = %3
  %18 = load ptr, ptr %5, align 8, !tbaa !3
  %19 = load ptr, ptr %7, align 8, !tbaa !52
  %20 = call i32 @ARKodeGetNumRhsEvals(ptr noundef %18, i32 noundef 1, ptr noundef %19)
  store i32 %20, ptr %8, align 4, !tbaa !7
  %21 = load i32, ptr %8, align 4, !tbaa !7
  %22 = icmp ne i32 %21, 0
  br i1 %22, label %23, label %25

23:                                               ; preds = %17
  %24 = load i32, ptr %8, align 4, !tbaa !7
  store i32 %24, ptr %4, align 4
  store i32 1, ptr %9, align 4
  br label %26

25:                                               ; preds = %17
  store i32 0, ptr %4, align 4
  store i32 1, ptr %9, align 4
  br label %26

26:                                               ; preds = %25, %23, %15
  call void @llvm.lifetime.end.p0(i64 4, ptr %8) #4
  %27 = load i32, ptr %4, align 4
  ret i32 %27
}